target datalayout = "e-m:e-p270:32:32-p271:32:32-p272:64:64-i64:64-i128:128-f80:128-n8:16:32:64-S128"
target triple = "x86_64-pc-linux-gnu"

%struct._object = type { %union.anon, ptr }
%union.anon = type { i64 }
%struct._typeobject = type { %struct.PyVarObject, ptr, i64, i64, ptr, i64, ptr, ptr, ptr, ptr, ptr, ptr, ptr, ptr, ptr, ptr, ptr, ptr, ptr, i64, ptr, ptr, ptr, ptr, i64, ptr, ptr, ptr, ptr, ptr, ptr, ptr, ptr, ptr, i64, ptr, ptr, ptr, ptr, ptr, ptr, ptr, ptr, ptr, ptr, ptr, i32, ptr, ptr, i8, i16 }
%struct.PyVarObject = type { %struct._object, i64 }
%struct.anon = type { i32, i32 }
%struct.PyTupleObject = type { %struct.PyVarObject, [1 x ptr] }
%struct.itemgetterobject = type { %struct._object, i64, ptr, i64, ptr }

@PyTuple_Type = external global %struct._typeobject, align 8

; Function Attrs: alwaysinline nounwind uwtable
define internal i32 @_Py_IsImmortal(ptr noundef %0) #4 {
  %2 = alloca ptr, align 8
  store ptr %0, ptr %2, align 8, !tbaa !4
  %3 = load ptr, ptr %2, align 8, !tbaa !4
  %4 = getelementptr inbounds nuw %struct._object, ptr %3, i32 0, i32 0
  %5 = getelementptr inbounds nuw %struct.anon, ptr %4, i32 0, i32 0
  %6 = load i32, ptr %5, align 8, !tbaa !20
  %7 = icmp slt i32 %6, 0
  %8 = zext i1 %7 to i32
  ret i32 %8
}

; Function Attrs: alwaysinline nounwind uwtable
define internal void @Py_INCREF(ptr noundef %0) #4 {
  %2 = alloca ptr, align 8
  %3 = alloca i32, align 4
  %4 = alloca i32, align 4
  store ptr %0, ptr %2, align 8, !tbaa !4
  call void @llvm.lifetime.start.p0(i64 4, ptr %3) #7
  %5 = load ptr, ptr %2, align 8, !tbaa !4
  %6 = getelementptr inbounds nuw %struct._object, ptr %5, i32 0, i32 0
  %7 = getelementptr inbounds nuw %struct.anon, ptr %6, i32 0, i32 0
  %8 = load i32, ptr %7, align 8, !tbaa !20
  store i32 %8, ptr %3, align 4, !tbaa !12
  %9 = load i32, ptr %3, align 4, !tbaa !12
  %10 = icmp slt i32 %9, 0
  br i1 %10, label %11, label %12

11:                                               ; preds = %1
  store i32 1, ptr %4, align 4
  br label %18

12:                                               ; preds = %1
  %13 = load i32, ptr %3, align 4, !tbaa !12
  %14 = add i32 %13, 1
  %15 = load ptr, ptr %2, align 8, !tbaa !4
  %16 = getelementptr inbounds nuw %struct._object, ptr %15, i32 0, i32 0
  %17 = getelementptr inbounds nuw %struct.anon, ptr %16, i32 0, i32 0
  store i32 %14, ptr %17, align 8, !tbaa !20
  store i32 0, ptr %4, align 4
  br label %18

18:                                               ; preds = %12, %11
  call void @llvm.lifetime.end.p0(i64 4, ptr %3) #7
  %19 = load i32, ptr %4, align 4
  switch i32 %19, label %21 [
    i32 0, label %20
    i32 1, label %20
  ]

20:                                               ; preds = %18, %18
  ret void

21:                                               ; preds = %18
  unreachable
}

; Function Attrs: inlinehint nounwind uwtable
define internal i64 @Py_SIZE(ptr noundef %0) #3 {
  %2 = alloca ptr, align 8
  store ptr %0, ptr %2, align 8, !tbaa !4
  %3 = load ptr, ptr %2, align 8, !tbaa !4
  %4 = getelementptr inbounds nuw %struct.PyVarObject, ptr %3, i32 0, i32 1
  %5 = load i64, ptr %4, align 8, !tbaa !60
  ret i64 %5
}

; Function Attrs: inlinehint nounwind uwtable
define internal ptr @_Py_TYPE(ptr noundef %0) #3 {
  %2 = alloca ptr, align 8
  store ptr %0, ptr %2, align 8, !tbaa !4
  %3 = load ptr, ptr %2, align 8, !tbaa !4
  %4 = getelementptr inbounds nuw %struct._object, ptr %3, i32 0, i32 1
  %5 = load ptr, ptr %4, align 8, !tbaa !38
  ret ptr %5
}

; Function Attrs: inlinehint nounwind uwtable
define internal void @PyTuple_SET_ITEM(ptr noundef %0, i64 noundef %1, ptr noundef %2) #3 {
  %4 = alloca ptr, align 8
  %5 = alloca i64, align 8
  %6 = alloca ptr, align 8
  %7 = alloca ptr, align 8
  store ptr %0, ptr %4, align 8, !tbaa !4
  store i64 %1, ptr %5, align 8, !tbaa !18
  store ptr %2, ptr %6, align 8, !tbaa !4
  call void @llvm.lifetime.start.p0(i64 8, ptr %7) #7
  %8 = load ptr, ptr %4, align 8, !tbaa !4
  store ptr %8, ptr %7, align 8, !tbaa !9
  %9 = load ptr, ptr %6, align 8, !tbaa !4
  %10 = load ptr, ptr %7, align 8, !tbaa !9
  %11 = getelementptr inbounds nuw %struct.PyTupleObject, ptr %10, i32 0, i32 1
  %12 = load i64, ptr %5, align 8, !tbaa !18
  %13 = getelementptr [1 x ptr], ptr %11, i64 0, i64 %12
  store ptr %9, ptr %13, align 8, !tbaa !4
  call void @llvm.lifetime.end.p0(i64 8, ptr %7) #7
  ret void
}

; Function Attrs: alwaysinline nounwind uwtable
define internal void @Py_DECREF(ptr noundef %0) #4 {
  %2 = alloca ptr, align 8
  store ptr %0, ptr %2, align 8, !tbaa !4
  %3 = load ptr, ptr %2, align 8, !tbaa !4
  %4 = call i32 @_Py_IsImmortal(ptr noundef %3)
  %5 = icmp ne i32 %4, 0
  br i1 %5, label %6, label %7

6:                                                ; preds = %1
  br label %16

7:                                                ; preds = %1
  %8 = load ptr, ptr %2, align 8, !tbaa !4
  %9 = getelementptr inbounds nuw %struct._object, ptr %8, i32 0, i32 0
  %10 = getelementptr inbounds nuw %struct.anon, ptr %9, i32 0, i32 0
  %11 = load i32, ptr %10, align 8, !tbaa !20
  %12 = add i32 %11, -1
  store i32 %12, ptr %10, align 8, !tbaa !20
  %13 = icmp eq i32 %12, 0
  br i1 %13, label %14, label %16

14:                                               ; preds = %7
  %15 = load ptr, ptr %2, align 8, !tbaa !4
  call void @_Py_Dealloc(ptr noundef %15)
  br label %16

16:                                               ; preds = %6, %14, %7
  ret void
}

; Function Attrs: inlinehint nounwind uwtable
define internal ptr @_Py_NewRef(ptr noundef %0) #3 {
  %2 = alloca ptr, align 8
  store ptr %0, ptr %2, align 8, !tbaa !4
  %3 = load ptr, ptr %2, align 8, !tbaa !4
  call void @Py_INCREF(ptr noundef %3)
  %4 = load ptr, ptr %2, align 8, !tbaa !4
  ret ptr %4
}

; Function Attrs: inlinehint nounwind uwtable
define internal i64 @PyTuple_GET_SIZE(ptr noundef %0) #3 {
  %2 = alloca ptr, align 8
  %3 = alloca ptr, align 8
  store ptr %0, ptr %2, align 8, !tbaa !4
  call void @llvm.lifetime.start.p0(i64 8, ptr %3) #7
  %4 = load ptr, ptr %2, align 8, !tbaa !4
  store ptr %4, ptr %3, align 8, !tbaa !9
  %5 = load ptr, ptr %3, align 8, !tbaa !9
  %6 = call i64 @Py_SIZE(ptr noundef %5)
  call void @llvm.lifetime.end.p0(i64 8, ptr %3) #7
  ret i64 %6
}

; Function Attrs: inlinehint nounwind uwtable
define internal i32 @Py_IS_TYPE(ptr noundef %0, ptr noundef %1) #3 {
  %3 = alloca ptr, align 8
  %4 = alloca ptr, align 8
  store ptr %0, ptr %3, align 8, !tbaa !4
  store ptr %1, ptr %4, align 8, !tbaa !36
  %5 = load ptr, ptr %3, align 8, !tbaa !4
  %6 = call ptr @_Py_TYPE(ptr noundef %5)
  %7 = load ptr, ptr %4, align 8, !tbaa !36
  %8 = icmp eq ptr %6, %7
  %9 = zext i1 %8 to i32
  ret i32 %9
}

; Function Attrs: nounwind uwtable
define internal ptr @itemgetter_call_impl(ptr noundef %0, ptr noundef %1) #0 {
  %3 = alloca ptr, align 8
  %4 = alloca ptr, align 8
  %5 = alloca ptr, align 8
  %6 = alloca ptr, align 8
  %7 = alloca i64, align 8
  %8 = alloca i64, align 8
  %9 = alloca i32, align 4
  %10 = alloca ptr, align 8
  %11 = alloca ptr, align 8
  store ptr %0, ptr %4, align 8, !tbaa !9
  store ptr %1, ptr %5, align 8, !tbaa !4
  call void @llvm.lifetime.start.p0(i64 8, ptr %6) #7
  call void @llvm.lifetime.start.p0(i64 8, ptr %7) #7
  call void @llvm.lifetime.start.p0(i64 8, ptr %8) #7
  %12 = load ptr, ptr %4, align 8, !tbaa !9
  %13 = getelementptr inbounds nuw %struct.itemgetterobject, ptr %12, i32 0, i32 1
  %14 = load i64, ptr %13, align 8, !tbaa !86
  store i64 %14, ptr %8, align 8, !tbaa !18
  %15 = load i64, ptr %8, align 8, !tbaa !18
  %16 = icmp eq i64 %15, 1
  br i1 %16, label %17, label %49

17:                                               ; preds = %2
  %18 = load ptr, ptr %4, align 8, !tbaa !9
  %19 = getelementptr inbounds nuw %struct.itemgetterobject, ptr %18, i32 0, i32 3
  %20 = load i64, ptr %19, align 8, !tbaa !87
  %21 = icmp sge i64 %20, 0
  br i1 %21, label %22, label %43

22:                                               ; preds = %17
  %23 = load ptr, ptr %5, align 8, !tbaa !4
  %24 = call i32 @Py_IS_TYPE(ptr noundef %23, ptr noundef @PyTuple_Type)
  %25 = icmp ne i32 %24, 0
  br i1 %25, label %26, label %43

26:                                               ; preds = %22
  %27 = load ptr, ptr %4, align 8, !tbaa !9
  %28 = getelementptr inbounds nuw %struct.itemgetterobject, ptr %27, i32 0, i32 3
  %29 = load i64, ptr %28, align 8, !tbaa !87
  %30 = load ptr, ptr %5, align 8, !tbaa !4
  %31 = call i64 @PyTuple_GET_SIZE(ptr noundef %30)
  %32 = icmp slt i64 %29, %31
  br i1 %32, label %33, label %43

33:                                               ; preds = %26
  %34 = load ptr, ptr %5, align 8, !tbaa !4
  %35 = getelementptr inbounds nuw %struct.PyTupleObject, ptr %34, i32 0, i32 1
  %36 = load ptr, ptr %4, align 8, !tbaa !9
  %37 = getelementptr inbounds nuw %struct.itemgetterobject, ptr %36, i32 0, i32 3
  %38 = load i64, ptr %37, align 8, !tbaa !87
  %39 = getelementptr [1 x ptr], ptr %35, i64 0, i64 %38
  %40 = load ptr, ptr %39, align 8, !tbaa !4
  store ptr %40, ptr %6, align 8, !tbaa !4
  %41 = load ptr, ptr %6, align 8, !tbaa !4
  %42 = call ptr @_Py_NewRef(ptr noundef %41)
  store ptr %42, ptr %3, align 8
  store i32 1, ptr %9, align 4
  br label %87

43:                                               ; preds = %26, %22, %17
  %44 = load ptr, ptr %5, align 8, !tbaa !4
  %45 = load ptr, ptr %4, align 8, !tbaa !9
  %46 = getelementptr inbounds nuw %struct.itemgetterobject, ptr %45, i32 0, i32 2
  %47 = load ptr, ptr %46, align 8, !tbaa !84
  %48 = call ptr @PyObject_GetItem(ptr noundef %44, ptr noundef %47)
  store ptr %48, ptr %3, align 8
  store i32 1, ptr %9, align 4
  br label %87

49:                                               ; preds = %2
  %50 = load i64, ptr %8, align 8, !tbaa !18
  %51 = call ptr @PyTuple_New(i64 noundef %50)
  store ptr %51, ptr %6, align 8, !tbaa !4
  %52 = load ptr, ptr %6, align 8, !tbaa !4
  %53 = icmp eq ptr %52, null
  br i1 %53, label %54, label %55

54:                                               ; preds = %49
  store ptr null, ptr %3, align 8
  store i32 1, ptr %9, align 4
  br label %87

55:                                               ; preds = %49
  store i64 0, ptr %7, align 8, !tbaa !18
  br label %56

56:                                               ; preds = %82, %55
  %57 = load i64, ptr %7, align 8, !tbaa !18
  %58 = load i64, ptr %8, align 8, !tbaa !18
  %59 = icmp slt i64 %57, %58
  br i1 %59, label %60, label %85

60:                                               ; preds = %56
  call void @llvm.lifetime.start.p0(i64 8, ptr %10) #7
  call void @llvm.lifetime.start.p0(i64 8, ptr %11) #7
  %61 = load ptr, ptr %4, align 8, !tbaa !9
  %62 = getelementptr inbounds nuw %struct.itemgetterobject, ptr %61, i32 0, i32 2
  %63 = load ptr, ptr %62, align 8, !tbaa !84
  %64 = getelementptr inbounds nuw %struct.PyTupleObject, ptr %63, i32 0, i32 1
  %65 = load i64, ptr %7, align 8, !tbaa !18
  %66 = getelementptr [1 x ptr], ptr %64, i64 0, i64 %65
  %67 = load ptr, ptr %66, align 8, !tbaa !4
  store ptr %67, ptr %10, align 8, !tbaa !4
  %68 = load ptr, ptr %5, align 8, !tbaa !4
  %69 = load ptr, ptr %10, align 8, !tbaa !4
  %70 = call ptr @PyObject_GetItem(ptr noundef %68, ptr noundef %69)
  store ptr %70, ptr %11, align 8, !tbaa !4
  %71 = load ptr, ptr %11, align 8, !tbaa !4
  %72 = icmp eq ptr %71, null
  br i1 %72, label %73, label %75

73:                                               ; preds = %60
  %74 = load ptr, ptr %6, align 8, !tbaa !4
  call void @Py_DECREF(ptr noundef %74)
  store ptr null, ptr %3, align 8
  store i32 1, ptr %9, align 4
  br label %79

75:                                               ; preds = %60
  %76 = load ptr, ptr %6, align 8, !tbaa !4
  %77 = load i64, ptr %7, align 8, !tbaa !18
  %78 = load ptr, ptr %11, align 8, !tbaa !4
  call void @PyTuple_SET_ITEM(ptr noundef %76, i64 noundef %77, ptr noundef %78)
  store i32 0, ptr %9, align 4
  br label %79

79:                                               ; preds = %75, %73
  call void @llvm.lifetime.end.p0(i64 8, ptr %11) #7
  call void @llvm.lifetime.end.p0(i64 8, ptr %10) #7
  %80 = load i32, ptr %9, align 4
  switch i32 %80, label %87 [
    i32 0, label %81
  ]

81:                                               ; preds = %79
  br label %82

82:                                               ; preds = %81
  %83 = load i64, ptr %7, align 8, !tbaa !18
  %84 = add i64 %83, 1
  store i64 %84, ptr %7, align 8, !tbaa !18
  br label %56, !llvm.loop !89

85:                                               ; preds = %56
  %86 = load ptr, ptr %6, align 8, !tbaa !4
  store ptr %86, ptr %3, align 8
  store i32 1, ptr %9, align 4
  br label %87

87:                                               ; preds = %85, %79, %54, %43, %33
  call void @llvm.lifetime.end.p0(i64 8, ptr %8) #7
  call void @llvm.lifetime.end.p0(i64 8, ptr %7) #7
  call void @llvm.lifetime.end.p0(i64 8, ptr %6) #7
  %88 = load ptr, ptr %3, align 8
  ret ptr %88
}