; Function Attrs: nounwind uwtable
define internal fastcc ptr @itemgetter_call_impl(ptr noundef readonly captures(none) %0, ptr noundef %1) unnamed_addr #0 {
  %3 = getelementptr inbounds nuw i8, ptr %0, i64 16
  %4 = load i64, ptr %3, align 8, !tbaa !79
  %5 = icmp eq i64 %4, 1
  br i1 %5, label %6, label %27

6:                                                ; preds = %2
  %7 = getelementptr inbounds nuw i8, ptr %0, i64 32
  %8 = load i64, ptr %7, align 8, !tbaa !80
  %9 = icmp sgt i64 %8, -1
  br i1 %9, label %10, label %23

10:                                               ; preds = %6
  %11 = getelementptr i8, ptr %1, i64 8
  %.val33 = load ptr, ptr %11, align 8, !tbaa !19
  %.not34 = icmp eq ptr %.val33, @PyTuple_Type
  br i1 %.not34, label %12, label %23

12:                                               ; preds = %10
  %13 = getelementptr i8, ptr %1, i64 16
  %.val = load i64, ptr %13, align 8, !tbaa !43
  %14 = icmp slt i64 %8, %.val
  br i1 %14, label %15, label %23

15:                                               ; preds = %12
  %16 = getelementptr inbounds nuw i8, ptr %1, i64 24
  %17 = getelementptr [1 x ptr], ptr %16, i64 0, i64 %8
  %18 = load ptr, ptr %17, align 8, !tbaa !17
  %19 = load i32, ptr %18, align 8, !tbaa !18
  %20 = icmp slt i32 %19, 0
  br i1 %20, label %_Py_NewRef.exit, label %21

21:                                               ; preds = %15
  %22 = add nuw i32 %19, 1
  store i32 %22, ptr %18, align 8, !tbaa !18
  br label %_Py_NewRef.exit

23:                                               ; preds = %12, %10, %6
  %24 = getelementptr inbounds nuw i8, ptr %0, i64 24
  %25 = load ptr, ptr %24, align 8, !tbaa !77
  %26 = tail call ptr @PyObject_GetItem(ptr noundef %1, ptr noundef %25) #7
  br label %_Py_NewRef.exit

27:                                               ; preds = %2
  %28 = tail call ptr @PyTuple_New(i64 noundef %4) #7
  %29 = icmp eq ptr %28, null
  br i1 %29, label %_Py_NewRef.exit, label %.preheader

.preheader:                                       ; preds = %27
  %30 = icmp sgt i64 %4, 0
  br i1 %30, label %.lr.ph, label %_Py_NewRef.exit

.lr.ph:                                           ; preds = %.preheader
  %31 = getelementptr inbounds nuw i8, ptr %0, i64 24
  %32 = getelementptr inbounds nuw i8, ptr %28, i64 24
  br label %33

33:                                               ; preds = %.lr.ph, %45
  %.02835 = phi i64 [ 0, %.lr.ph ], [ %47, %45 ]
  %34 = load ptr, ptr %31, align 8, !tbaa !77
  %35 = getelementptr inbounds nuw i8, ptr %34, i64 24
  %36 = getelementptr [1 x ptr], ptr %35, i64 0, i64 %.02835
  %37 = load ptr, ptr %36, align 8, !tbaa !17
  %38 = tail call ptr @PyObject_GetItem(ptr noundef %1, ptr noundef %37) #7
  %.not = icmp eq ptr %38, null
  br i1 %.not, label %39, label %45

39:                                               ; preds = %33
  %40 = load i32, ptr %28, align 8, !tbaa !18
  %.not.i = icmp sgt i32 %40, -1
  br i1 %.not.i, label %41, label %_Py_NewRef.exit

41:                                               ; preds = %39
  %42 = add nsw i32 %40, -1
  store i32 %42, ptr %28, align 8, !tbaa !18
  %43 = icmp eq i32 %42, 0
  br i1 %43, label %44, label %_Py_NewRef.exit

44:                                               ; preds = %41
  tail call void @_Py_Dealloc(ptr noundef nonnull %28) #7
  br label %_Py_NewRef.exit

45:                                               ; preds = %33
  %46 = getelementptr [1 x ptr], ptr %32, i64 0, i64 %.02835
  store ptr %38, ptr %46, align 8, !tbaa !17
  %47 = add nuw nsw i64 %.02835, 1
  %exitcond.not = icmp eq i64 %47, %4
  br i1 %exitcond.not, label %_Py_NewRef.exit, label %33, !llvm.loop !82

_Py_NewRef.exit:                                  ; preds = %45, %.preheader, %39, %41, %44, %21, %15, %27, %23
  %.0 = phi ptr [ %26, %23 ], [ null, %27 ], [ %18, %15 ], [ %18, %21 ], [ null, %44 ], [ null, %41 ], [ null, %39 ], [ %28, %.preheader ], [ %28, %45 ]
  ret ptr %.0
}